; Function Attrs: mustprogress uwtable
define hidden void @_ZN1q19quantifier_stat_genC2ER11ast_managerR6region(ptr nocapture noundef nonnull writeonly align 8 dereferenceable(52) %this, ptr noundef nonnull align 8 dereferenceable(976) %m, ptr noundef nonnull align 8 dereferenceable(40) %r) unnamed_addr #4 align 2 personality ptr @__gxx_personality_v0 {
entry:
  store ptr %m, ptr %this, align 8
  %m_region = getelementptr inbounds i8, ptr %this, i64 8
  store ptr %r, ptr %m_region, align 8
  %m_already_found = getelementptr inbounds i8, ptr %this, i64 16
  %call.i.i.i.i = tail call noalias noundef ptr @_ZN6memory8allocateEm(i64 noundef 128)
  tail call void @llvm.memset.p0.i64(ptr noundef nonnull align 8 dereferenceable(128) %call.i.i.i.i, i8 0, i64 128, i1 false)
  store ptr %call.i.i.i.i, ptr %m_already_found, align 8
  %m_capacity.i.i = getelementptr inbounds i8, ptr %this, i64 24
  store i32 8, ptr %m_capacity.i.i, align 8
  %m_size.i.i = getelementptr inbounds i8, ptr %this, i64 28
  store i32 0, ptr %m_size.i.i, align 4
  %m_num_deleted.i.i = getelementptr inbounds i8, ptr %this, i64 32
  store i32 0, ptr %m_num_deleted.i.i, align 8
  %m_todo = getelementptr inbounds i8, ptr %this, i64 40
  store ptr null, ptr %m_todo, align 8
  %m_case_split_factor = getelementptr inbounds i8, ptr %this, i64 48
  store i32 0, ptr %m_case_split_factor, align 8
  ret void
}